(lp1
((lp2
(lp3
F-1
aF0
aF0
aa(lp4
F0
aF-1
aF0
aa(lp5
F0
aF0
aF1
aa(lp6
F0
aF0
aF0
atp7
a((lp8
(lp9
F1
aF0
aF0
aa(lp10
F0
aF-1
aF0
aa(lp11
F0
aF0
aF-1
aa(lp12
F0
aF0
aF0
atp13
a((lp14
(lp15
F-1
aF0
aF0
aa(lp16
F0
aF1
aF0
aa(lp17
F0
aF0
aF-1
aa(lp18
F0
aF0
aF0
atp19
a((lp20
(lp21
F1
aF0
aF0
aa(lp22
F0
aF1
aF0
aa(lp23
F0
aF0
aF1
aa(lp24
F0.5
aF0.5
aF0
atp25
a((lp26
(lp27
F-1
aF0
aF0
aa(lp28
F0
aF-1
aF0
aa(lp29
F0
aF0
aF1
aa(lp30
F0.5
aF0.5
aF0
atp31
a((lp32
(lp33
F1
aF0
aF0
aa(lp34
F0
aF-1
aF0
aa(lp35
F0
aF0
aF-1
aa(lp36
F0.5
aF0.5
aF0
atp37
a((lp38
(lp39
F-1
aF0
aF0
aa(lp40
F0
aF1
aF0
aa(lp41
F0
aF0
aF-1
aa(lp42
F0.5
aF0.5
aF0
atp43
a.