(lp1
((lp2
(lp3
F0
aF0
aF1
aa(lp4
F1
aF0
aF0
aa(lp5
F0
aF1
aF0
aa(lp6
F0
aF0
aF0
atp7
a((lp8
(lp9
F0
aF1
aF0
aa(lp10
F0
aF0
aF1
aa(lp11
F1
aF0
aF0
aa(lp12
F0
aF0
aF0
atp13
a((lp14
(lp15
F0
aF-1
aF0
aa(lp16
F0
aF0
aF-1
aa(lp17
F1
aF0
aF0
aa(lp18
F0
aF0.5
aF0
atp19
a((lp20
(lp21
F0
aF0
aF1
aa(lp22
F-1
aF0
aF0
aa(lp23
F0
aF-1
aF0
aa(lp24
F0
aF0
aF0.5
atp25
a((lp26
(lp27
F0
aF-1
aF0
aa(lp28
F0
aF0
aF1
aa(lp29
F-1
aF0
aF0
aa(lp30
F0.5
aF0
aF0
atp31
a((lp32
(lp33
F0
aF0
aF-1
aa(lp34
F-1
aF0
aF0
aa(lp35
F0
aF1
aF0
aa(lp36
F0
aF0.5
aF0
atp37
a((lp38
(lp39
F0
aF0
aF-1
aa(lp40
F1
aF0
aF0
aa(lp41
F0
aF-1
aF0
aa(lp42
F0.5
aF0
aF0
atp43
a((lp44
(lp45
F0
aF1
aF0
aa(lp46
F0
aF0
aF-1
aa(lp47
F-1
aF0
aF0
aa(lp48
F0
aF0
aF0.5
atp49
a((lp50
(lp51
F-1
aF0
aF0
aa(lp52
F0
aF-1
aF0
aa(lp53
F0
aF0
aF1
aa(lp54
F0
aF0.5
aF0
atp55
a((lp56
(lp57
F1
aF0
aF0
aa(lp58
F0
aF-1
aF0
aa(lp59
F0
aF0
aF-1
aa(lp60
F0
aF0
aF0.5
atp61
a((lp62
(lp63
F-1
aF0
aF0
aa(lp64
F0
aF1
aF0
aa(lp65
F0
aF0
aF-1
aa(lp66
F0.5
aF0
aF0
atp67
a((lp68
(lp69
F1
aF0
aF0
aa(lp70
F0
aF1
aF0
aa(lp71
F0
aF0
aF1
aa(lp72
F0.5
aF0.5
aF0.5
atp73
a((lp74
(lp75
F0
aF0
aF1
aa(lp76
F1
aF0
aF0
aa(lp77
F0
aF1
aF0
aa(lp78
F0.5
aF0.5
aF0.5
atp79
a((lp80
(lp81
F0
aF1
aF0
aa(lp82
F0
aF0
aF1
aa(lp83
F1
aF0
aF0
aa(lp84
F0.5
aF0.5
aF0.5
atp85
a((lp86
(lp87
F0
aF-1
aF0
aa(lp88
F0
aF0
aF-1
aa(lp89
F1
aF0
aF0
aa(lp90
F0.5
aF0
aF0.5
atp91
a((lp92
(lp93
F0
aF0
aF1
aa(lp94
F-1
aF0
aF0
aa(lp95
F0
aF-1
aF0
aa(lp96
F0.5
aF0.5
aF0
atp97
a((lp98
(lp99
F0
aF-1
aF0
aa(lp100
F0
aF0
aF1
aa(lp101
F-1
aF0
aF0
aa(lp102
F0
aF0.5
aF0.5
atp103
a((lp104
(lp105
F0
aF0
aF-1
aa(lp106
F-1
aF0
aF0
aa(lp107
F0
aF1
aF0
aa(lp108
F0.5
aF0
aF0.5
atp109
a((lp110
(lp111
F0
aF0
aF-1
aa(lp112
F1
aF0
aF0
aa(lp113
F0
aF-1
aF0
aa(lp114
F0
aF0.5
aF0.5
atp115
a((lp116
(lp117
F0
aF1
aF0
aa(lp118
F0
aF0
aF-1
aa(lp119
F-1
aF0
aF0
aa(lp120
F0.5
aF0.5
aF0
atp121
a((lp122
(lp123
F-1
aF0
aF0
aa(lp124
F0
aF-1
aF0
aa(lp125
F0
aF0
aF1
aa(lp126
F0.5
aF0
aF0.5
atp127
a((lp128
(lp129
F1
aF0
aF0
aa(lp130
F0
aF-1
aF0
aa(lp131
F0
aF0
aF-1
aa(lp132
F0.5
aF0.5
aF0
atp133
a((lp134
(lp135
F-1
aF0
aF0
aa(lp136
F0
aF1
aF0
aa(lp137
F0
aF0
aF-1
aa(lp138
F0
aF0.5
aF0.5
atp139
a.