(lp1
((lp2
(lp3
F0
aF-1
aF0
aa(lp4
F1
aF-1
aF0
aa(lp5
F0
aF0
aF1
aa(lp6
F0
aF0
aF0
atp7
a((lp8
(lp9
F-1
aF1
aF0
aa(lp10
F-1
aF0
aF0
aa(lp11
F0
aF0
aF1
aa(lp12
F0
aF0
aF0
atp13
a((lp14
(lp15
F1
aF-1
aF0
aa(lp16
F0
aF-1
aF0
aa(lp17
F0
aF0
aF-1
aa(lp18
F0
aF0
aF0
atp19
a((lp20
(lp21
F-1
aF0
aF0
aa(lp22
F-1
aF1
aF0
aa(lp23
F0
aF0
aF-1
aa(lp24
F0
aF0
aF0
atp25
a((lp26
(lp27
F0
aF1
aF0
aa(lp28
F1
aF0
aF0
aa(lp29
F0
aF0
aF-1
aa(lp30
F0
aF0
aF0
atp31
a((lp32
(lp33
F1
aF0
aF0
aa(lp34
F0
aF1
aF0
aa(lp35
F0
aF0
aF1
aa(lp36
F0.66666667000000002
aF0.33333332999999998
aF0.33333332999999998
atp37
a((lp38
(lp39
F0
aF-1
aF0
aa(lp40
F1
aF-1
aF0
aa(lp41
F0
aF0
aF1
aa(lp42
F0.66666667000000002
aF0.33333332999999998
aF0.33333332999999998
atp43
a((lp44
(lp45
F-1
aF1
aF0
aa(lp46
F-1
aF0
aF0
aa(lp47
F0
aF0
aF1
aa(lp48
F0.66666667000000002
aF0.33333332999999998
aF0.33333332999999998
atp49
a((lp50
(lp51
F1
aF-1
aF0
aa(lp52
F0
aF-1
aF0
aa(lp53
F0
aF0
aF-1
aa(lp54
F0.66666667000000002
aF0.33333332999999998
aF0.33333332999999998
atp55
a((lp56
(lp57
F-1
aF0
aF0
aa(lp58
F-1
aF1
aF0
aa(lp59
F0
aF0
aF-1
aa(lp60
F0.66666667000000002
aF0.33333332999999998
aF0.33333332999999998
atp61
a((lp62
(lp63
F0
aF1
aF0
aa(lp64
F1
aF0
aF0
aa(lp65
F0
aF0
aF-1
aa(lp66
F0.66666667000000002
aF0.33333332999999998
aF0.33333332999999998
atp67
a((lp68
(lp69
F1
aF0
aF0
aa(lp70
F0
aF1
aF0
aa(lp71
F0
aF0
aF1
aa(lp72
F0.33333332999999998
aF0.66666667000000002
aF0.66666667000000002
atp73
a((lp74
(lp75
F0
aF-1
aF0
aa(lp76
F1
aF-1
aF0
aa(lp77
F0
aF0
aF1
aa(lp78
F0.33333332999999998
aF0.66666667000000002
aF0.66666667000000002
atp79
a((lp80
(lp81
F-1
aF1
aF0
aa(lp82
F-1
aF0
aF0
aa(lp83
F0
aF0
aF1
aa(lp84
F0.33333332999999998
aF0.66666667000000002
aF0.66666667000000002
atp85
a((lp86
(lp87
F1
aF-1
aF0
aa(lp88
F0
aF-1
aF0
aa(lp89
F0
aF0
aF-1
aa(lp90
F0.33333332999999998
aF0.66666667000000002
aF0.66666667000000002
atp91
a((lp92
(lp93
F-1
aF0
aF0
aa(lp94
F-1
aF1
aF0
aa(lp95
F0
aF0
aF-1
aa(lp96
F0.33333332999999998
aF0.66666667000000002
aF0.66666667000000002
atp97
a((lp98
(lp99
F0
aF1
aF0
aa(lp100
F1
aF0
aF0
aa(lp101
F0
aF0
aF-1
aa(lp102
F0.33333332999999998
aF0.66666667000000002
aF0.66666667000000002
atp103
a.