(lp1
((lp2
(lp3
F0
aF0
aF1
aa(lp4
F1
aF0
aF0
aa(lp5
F0
aF1
aF0
aa(lp6
F0
aF0
aF0
atp7
a((lp8
(lp9
F0
aF1
aF0
aa(lp10
F0
aF0
aF1
aa(lp11
F1
aF0
aF0
aa(lp12
F0
aF0
aF0
atp13
a((lp14
(lp15
F0
aF-1
aF0
aa(lp16
F0
aF0
aF-1
aa(lp17
F1
aF0
aF0
aa(lp18
F0
aF0
aF0
atp19
a((lp20
(lp21
F0
aF0
aF1
aa(lp22
F-1
aF0
aF0
aa(lp23
F0
aF-1
aF0
aa(lp24
F0
aF0
aF0
atp25
a((lp26
(lp27
F0
aF-1
aF0
aa(lp28
F0
aF0
aF1
aa(lp29
F-1
aF0
aF0
aa(lp30
F0
aF0
aF0
atp31
a((lp32
(lp33
F0
aF0
aF-1
aa(lp34
F-1
aF0
aF0
aa(lp35
F0
aF1
aF0
aa(lp36
F0
aF0
aF0
atp37
a((lp38
(lp39
F0
aF0
aF-1
aa(lp40
F1
aF0
aF0
aa(lp41
F0
aF-1
aF0
aa(lp42
F0
aF0
aF0
atp43
a((lp44
(lp45
F0
aF1
aF0
aa(lp46
F0
aF0
aF-1
aa(lp47
F-1
aF0
aF0
aa(lp48
F0
aF0
aF0
atp49
a((lp50
(lp51
F-1
aF0
aF0
aa(lp52
F0
aF-1
aF0
aa(lp53
F0
aF0
aF1
aa(lp54
F0
aF0
aF0
atp55
a((lp56
(lp57
F1
aF0
aF0
aa(lp58
F0
aF-1
aF0
aa(lp59
F0
aF0
aF-1
aa(lp60
F0
aF0
aF0
atp61
a((lp62
(lp63
F-1
aF0
aF0
aa(lp64
F0
aF1
aF0
aa(lp65
F0
aF0
aF-1
aa(lp66
F0
aF0
aF0
atp67
a((lp68
(lp69
F1
aF0
aF0
aa(lp70
F0
aF1
aF0
aa(lp71
F0
aF0
aF1
aa(lp72
F0
aF0.5
aF0.5
atp73
a((lp74
(lp75
F0
aF0
aF1
aa(lp76
F1
aF0
aF0
aa(lp77
F0
aF1
aF0
aa(lp78
F0
aF0.5
aF0.5
atp79
a((lp80
(lp81
F0
aF1
aF0
aa(lp82
F0
aF0
aF1
aa(lp83
F1
aF0
aF0
aa(lp84
F0
aF0.5
aF0.5
atp85
a((lp86
(lp87
F0
aF-1
aF0
aa(lp88
F0
aF0
aF-1
aa(lp89
F1
aF0
aF0
aa(lp90
F0
aF0.5
aF0.5
atp91
a((lp92
(lp93
F0
aF0
aF1
aa(lp94
F-1
aF0
aF0
aa(lp95
F0
aF-1
aF0
aa(lp96
F0
aF0.5
aF0.5
atp97
a((lp98
(lp99
F0
aF-1
aF0
aa(lp100
F0
aF0
aF1
aa(lp101
F-1
aF0
aF0
aa(lp102
F0
aF0.5
aF0.5
atp103
a((lp104
(lp105
F0
aF0
aF-1
aa(lp106
F-1
aF0
aF0
aa(lp107
F0
aF1
aF0
aa(lp108
F0
aF0.5
aF0.5
atp109
a((lp110
(lp111
F0
aF0
aF-1
aa(lp112
F1
aF0
aF0
aa(lp113
F0
aF-1
aF0
aa(lp114
F0
aF0.5
aF0.5
atp115
a((lp116
(lp117
F0
aF1
aF0
aa(lp118
F0
aF0
aF-1
aa(lp119
F-1
aF0
aF0
aa(lp120
F0
aF0.5
aF0.5
atp121
a((lp122
(lp123
F-1
aF0
aF0
aa(lp124
F0
aF-1
aF0
aa(lp125
F0
aF0
aF1
aa(lp126
F0
aF0.5
aF0.5
atp127
a((lp128
(lp129
F1
aF0
aF0
aa(lp130
F0
aF-1
aF0
aa(lp131
F0
aF0
aF-1
aa(lp132
F0
aF0.5
aF0.5
atp133
a((lp134
(lp135
F-1
aF0
aF0
aa(lp136
F0
aF1
aF0
aa(lp137
F0
aF0
aF-1
aa(lp138
F0
aF0.5
aF0.5
atp139
a((lp140
(lp141
F1
aF0
aF0
aa(lp142
F0
aF1
aF0
aa(lp143
F0
aF0
aF1
aa(lp144
F0.5
aF0
aF0.5
atp145
a((lp146
(lp147
F0
aF0
aF1
aa(lp148
F1
aF0
aF0
aa(lp149
F0
aF1
aF0
aa(lp150
F0.5
aF0
aF0.5
atp151
a((lp152
(lp153
F0
aF1
aF0
aa(lp154
F0
aF0
aF1
aa(lp155
F1
aF0
aF0
aa(lp156
F0.5
aF0
aF0.5
atp157
a((lp158
(lp159
F0
aF-1
aF0
aa(lp160
F0
aF0
aF-1
aa(lp161
F1
aF0
aF0
aa(lp162
F0.5
aF0
aF0.5
atp163
a((lp164
(lp165
F0
aF0
aF1
aa(lp166
F-1
aF0
aF0
aa(lp167
F0
aF-1
aF0
aa(lp168
F0.5
aF0
aF0.5
atp169
a((lp170
(lp171
F0
aF-1
aF0
aa(lp172
F0
aF0
aF1
aa(lp173
F-1
aF0
aF0
aa(lp174
F0.5
aF0
aF0.5
atp175
a((lp176
(lp177
F0
aF0
aF-1
aa(lp178
F-1
aF0
aF0
aa(lp179
F0
aF1
aF0
aa(lp180
F0.5
aF0
aF0.5
atp181
a((lp182
(lp183
F0
aF0
aF-1
aa(lp184
F1
aF0
aF0
aa(lp185
F0
aF-1
aF0
aa(lp186
F0.5
aF0
aF0.5
atp187
a((lp188
(lp189
F0
aF1
aF0
aa(lp190
F0
aF0
aF-1
aa(lp191
F-1
aF0
aF0
aa(lp192
F0.5
aF0
aF0.5
atp193
a((lp194
(lp195
F-1
aF0
aF0
aa(lp196
F0
aF-1
aF0
aa(lp197
F0
aF0
aF1
aa(lp198
F0.5
aF0
aF0.5
atp199
a((lp200
(lp201
F1
aF0
aF0
aa(lp202
F0
aF-1
aF0
aa(lp203
F0
aF0
aF-1
aa(lp204
F0.5
aF0
aF0.5
atp205
a((lp206
(lp207
F-1
aF0
aF0
aa(lp208
F0
aF1
aF0
aa(lp209
F0
aF0
aF-1
aa(lp210
F0.5
aF0
aF0.5
atp211
a((lp212
(lp213
F1
aF0
aF0
aa(lp214
F0
aF1
aF0
aa(lp215
F0
aF0
aF1
aa(lp216
F0.5
aF0.5
aF0
atp217
a((lp218
(lp219
F0
aF0
aF1
aa(lp220
F1
aF0
aF0
aa(lp221
F0
aF1
aF0
aa(lp222
F0.5
aF0.5
aF0
atp223
a((lp224
(lp225
F0
aF1
aF0
aa(lp226
F0
aF0
aF1
aa(lp227
F1
aF0
aF0
aa(lp228
F0.5
aF0.5
aF0
atp229
a((lp230
(lp231
F0
aF-1
aF0
aa(lp232
F0
aF0
aF-1
aa(lp233
F1
aF0
aF0
aa(lp234
F0.5
aF0.5
aF0
atp235
a((lp236
(lp237
F0
aF0
aF1
aa(lp238
F-1
aF0
aF0
aa(lp239
F0
aF-1
aF0
aa(lp240
F0.5
aF0.5
aF0
atp241
a((lp242
(lp243
F0
aF-1
aF0
aa(lp244
F0
aF0
aF1
aa(lp245
F-1
aF0
aF0
aa(lp246
F0.5
aF0.5
aF0
atp247
a((lp248
(lp249
F0
aF0
aF-1
aa(lp250
F-1
aF0
aF0
aa(lp251
F0
aF1
aF0
aa(lp252
F0.5
aF0.5
aF0
atp253
a((lp254
(lp255
F0
aF0
aF-1
aa(lp256
F1
aF0
aF0
aa(lp257
F0
aF-1
aF0
aa(lp258
F0.5
aF0.5
aF0
atp259
a((lp260
(lp261
F0
aF1
aF0
aa(lp262
F0
aF0
aF-1
aa(lp263
F-1
aF0
aF0
aa(lp264
F0.5
aF0.5
aF0
atp265
a((lp266
(lp267
F-1
aF0
aF0
aa(lp268
F0
aF-1
aF0
aa(lp269
F0
aF0
aF1
aa(lp270
F0.5
aF0.5
aF0
atp271
a((lp272
(lp273
F1
aF0
aF0
aa(lp274
F0
aF-1
aF0
aa(lp275
F0
aF0
aF-1
aa(lp276
F0.5
aF0.5
aF0
atp277
a((lp278
(lp279
F-1
aF0
aF0
aa(lp280
F0
aF1
aF0
aa(lp281
F0
aF0
aF-1
aa(lp282
F0.5
aF0.5
aF0
atp283
a.