(lp1
((lp2
(lp3
F0
aF-1
aF0
aa(lp4
F1
aF0
aF0
aa(lp5
F0
aF0
aF1
aa(lp6
F0.25
aF0.25
aF0.25
atp7
a((lp8
(lp9
F-1
aF0
aF0
aa(lp10
F0
aF-1
aF0
aa(lp11
F0
aF0
aF1
aa(lp12
F0
aF0
aF0
atp13
a((lp14
(lp15
F0
aF1
aF0
aa(lp16
F-1
aF0
aF0
aa(lp17
F0
aF0
aF1
aa(lp18
F0.25
aF0.25
aF0.25
atp19
a((lp20
(lp21
F1
aF0
aF0
aa(lp22
F0
aF0
aF-1
aa(lp23
F0
aF1
aF0
aa(lp24
F0.25
aF0.25
aF0.25
atp25
a((lp26
(lp27
F1
aF0
aF0
aa(lp28
F0
aF-1
aF0
aa(lp29
F0
aF0
aF-1
aa(lp30
F0
aF0
aF0
atp31
a((lp32
(lp33
F1
aF0
aF0
aa(lp34
F0
aF0
aF1
aa(lp35
F0
aF-1
aF0
aa(lp36
F0.25
aF0.25
aF0.25
atp37
a((lp38
(lp39
F0
aF0
aF1
aa(lp40
F0
aF1
aF0
aa(lp41
F-1
aF0
aF0
aa(lp42
F0.25
aF0.25
aF0.25
atp43
a((lp44
(lp45
F-1
aF0
aF0
aa(lp46
F0
aF1
aF0
aa(lp47
F0
aF0
aF-1
aa(lp48
F0
aF0
aF0
atp49
a((lp50
(lp51
F0
aF0
aF-1
aa(lp52
F0
aF1
aF0
aa(lp53
F1
aF0
aF0
aa(lp54
F0.25
aF0.25
aF0.25
atp55
a((lp56
(lp57
F0
aF0
aF1
aa(lp58
F1
aF0
aF0
aa(lp59
F0
aF1
aF0
aa(lp60
F0
aF0
aF0
atp61
a((lp62
(lp63
F0
aF1
aF0
aa(lp64
F0
aF0
aF1
aa(lp65
F1
aF0
aF0
aa(lp66
F0
aF0
aF0
atp67
a((lp68
(lp69
F0
aF-1
aF0
aa(lp70
F0
aF0
aF-1
aa(lp71
F1
aF0
aF0
aa(lp72
F0
aF0
aF0
atp73
a((lp74
(lp75
F0
aF0
aF1
aa(lp76
F-1
aF0
aF0
aa(lp77
F0
aF-1
aF0
aa(lp78
F0
aF0
aF0
atp79
a((lp80
(lp81
F0
aF-1
aF0
aa(lp82
F0
aF0
aF1
aa(lp83
F-1
aF0
aF0
aa(lp84
F0
aF0
aF0
atp85
a((lp86
(lp87
F0
aF0
aF-1
aa(lp88
F-1
aF0
aF0
aa(lp89
F0
aF1
aF0
aa(lp90
F0
aF0
aF0
atp91
a((lp92
(lp93
F0
aF0
aF-1
aa(lp94
F1
aF0
aF0
aa(lp95
F0
aF-1
aF0
aa(lp96
F0
aF0
aF0
atp97
a((lp98
(lp99
F0
aF1
aF0
aa(lp100
F0
aF0
aF-1
aa(lp101
F-1
aF0
aF0
aa(lp102
F0
aF0
aF0
atp103
a((lp104
(lp105
F0
aF1
aF0
aa(lp106
F1
aF0
aF0
aa(lp107
F0
aF0
aF-1
aa(lp108
F0.25
aF0.25
aF0.25
atp109
a((lp110
(lp111
F0
aF-1
aF0
aa(lp112
F-1
aF0
aF0
aa(lp113
F0
aF0
aF-1
aa(lp114
F0.25
aF0.25
aF0.25
atp115
a((lp116
(lp117
F-1
aF0
aF0
aa(lp118
F0
aF0
aF1
aa(lp119
F0
aF1
aF0
aa(lp120
F0.25
aF0.25
aF0.25
atp121
a((lp122
(lp123
F-1
aF0
aF0
aa(lp124
F0
aF0
aF-1
aa(lp125
F0
aF-1
aF0
aa(lp126
F0.25
aF0.25
aF0.25
atp127
a((lp128
(lp129
F0
aF0
aF1
aa(lp130
F0
aF-1
aF0
aa(lp131
F1
aF0
aF0
aa(lp132
F0.25
aF0.25
aF0.25
atp133
a((lp134
(lp135
F0
aF0
aF-1
aa(lp136
F0
aF-1
aF0
aa(lp137
F-1
aF0
aF0
aa(lp138
F0.25
aF0.25
aF0.25
atp139
a((lp140
(lp141
F1
aF0
aF0
aa(lp142
F0
aF1
aF0
aa(lp143
F0
aF0
aF1
aa(lp144
F0
aF0.5
aF0.5
atp145
a((lp146
(lp147
F0
aF-1
aF0
aa(lp148
F1
aF0
aF0
aa(lp149
F0
aF0
aF1
aa(lp150
F0.25
aF0.75
aF0.75
atp151
a((lp152
(lp153
F-1
aF0
aF0
aa(lp154
F0
aF-1
aF0
aa(lp155
F0
aF0
aF1
aa(lp156
F0
aF0.5
aF0.5
atp157
a((lp158
(lp159
F0
aF1
aF0
aa(lp160
F-1
aF0
aF0
aa(lp161
F0
aF0
aF1
aa(lp162
F0.25
aF0.75
aF0.75
atp163
a((lp164
(lp165
F1
aF0
aF0
aa(lp166
F0
aF0
aF-1
aa(lp167
F0
aF1
aF0
aa(lp168
F0.25
aF0.75
aF0.75
atp169
a((lp170
(lp171
F1
aF0
aF0
aa(lp172
F0
aF-1
aF0
aa(lp173
F0
aF0
aF-1
aa(lp174
F0
aF0.5
aF0.5
atp175
a((lp176
(lp177
F1
aF0
aF0
aa(lp178
F0
aF0
aF1
aa(lp179
F0
aF-1
aF0
aa(lp180
F0.25
aF0.75
aF0.75
atp181
a((lp182
(lp183
F0
aF0
aF1
aa(lp184
F0
aF1
aF0
aa(lp185
F-1
aF0
aF0
aa(lp186
F0.25
aF0.75
aF0.75
atp187
a((lp188
(lp189
F-1
aF0
aF0
aa(lp190
F0
aF1
aF0
aa(lp191
F0
aF0
aF-1
aa(lp192
F0
aF0.5
aF0.5
atp193
a((lp194
(lp195
F0
aF0
aF-1
aa(lp196
F0
aF1
aF0
aa(lp197
F1
aF0
aF0
aa(lp198
F0.25
aF0.75
aF0.75
atp199
a((lp200
(lp201
F0
aF0
aF1
aa(lp202
F1
aF0
aF0
aa(lp203
F0
aF1
aF0
aa(lp204
F0
aF0.5
aF0.5
atp205
a((lp206
(lp207
F0
aF1
aF0
aa(lp208
F0
aF0
aF1
aa(lp209
F1
aF0
aF0
aa(lp210
F0
aF0.5
aF0.5
atp211
a((lp212
(lp213
F0
aF-1
aF0
aa(lp214
F0
aF0
aF-1
aa(lp215
F1
aF0
aF0
aa(lp216
F0
aF0.5
aF0.5
atp217
a((lp218
(lp219
F0
aF0
aF1
aa(lp220
F-1
aF0
aF0
aa(lp221
F0
aF-1
aF0
aa(lp222
F0
aF0.5
aF0.5
atp223
a((lp224
(lp225
F0
aF-1
aF0
aa(lp226
F0
aF0
aF1
aa(lp227
F-1
aF0
aF0
aa(lp228
F0
aF0.5
aF0.5
atp229
a((lp230
(lp231
F0
aF0
aF-1
aa(lp232
F-1
aF0
aF0
aa(lp233
F0
aF1
aF0
aa(lp234
F0
aF0.5
aF0.5
atp235
a((lp236
(lp237
F0
aF0
aF-1
aa(lp238
F1
aF0
aF0
aa(lp239
F0
aF-1
aF0
aa(lp240
F0
aF0.5
aF0.5
atp241
a((lp242
(lp243
F0
aF1
aF0
aa(lp244
F0
aF0
aF-1
aa(lp245
F-1
aF0
aF0
aa(lp246
F0
aF0.5
aF0.5
atp247
a((lp248
(lp249
F0
aF1
aF0
aa(lp250
F1
aF0
aF0
aa(lp251
F0
aF0
aF-1
aa(lp252
F0.25
aF0.75
aF0.75
atp253
a((lp254
(lp255
F0
aF-1
aF0
aa(lp256
F-1
aF0
aF0
aa(lp257
F0
aF0
aF-1
aa(lp258
F0.25
aF0.75
aF0.75
atp259
a((lp260
(lp261
F-1
aF0
aF0
aa(lp262
F0
aF0
aF1
aa(lp263
F0
aF1
aF0
aa(lp264
F0.25
aF0.75
aF0.75
atp265
a((lp266
(lp267
F-1
aF0
aF0
aa(lp268
F0
aF0
aF-1
aa(lp269
F0
aF-1
aF0
aa(lp270
F0.25
aF0.75
aF0.75
atp271
a((lp272
(lp273
F0
aF0
aF1
aa(lp274
F0
aF-1
aF0
aa(lp275
F1
aF0
aF0
aa(lp276
F0.25
aF0.75
aF0.75
atp277
a((lp278
(lp279
F0
aF0
aF-1
aa(lp280
F0
aF-1
aF0
aa(lp281
F-1
aF0
aF0
aa(lp282
F0.25
aF0.75
aF0.75
atp283
a((lp284
(lp285
F1
aF0
aF0
aa(lp286
F0
aF1
aF0
aa(lp287
F0
aF0
aF1
aa(lp288
F0.5
aF0
aF0.5
atp289
a((lp290
(lp291
F0
aF-1
aF0
aa(lp292
F1
aF0
aF0
aa(lp293
F0
aF0
aF1
aa(lp294
F0.75
aF0.25
aF0.75
atp295
a((lp296
(lp297
F-1
aF0
aF0
aa(lp298
F0
aF-1
aF0
aa(lp299
F0
aF0
aF1
aa(lp300
F0.5
aF0
aF0.5
atp301
a((lp302
(lp303
F0
aF1
aF0
aa(lp304
F-1
aF0
aF0
aa(lp305
F0
aF0
aF1
aa(lp306
F0.75
aF0.25
aF0.75
atp307
a((lp308
(lp309
F1
aF0
aF0
aa(lp310
F0
aF0
aF-1
aa(lp311
F0
aF1
aF0
aa(lp312
F0.75
aF0.25
aF0.75
atp313
a((lp314
(lp315
F1
aF0
aF0
aa(lp316
F0
aF-1
aF0
aa(lp317
F0
aF0
aF-1
aa(lp318
F0.5
aF0
aF0.5
atp319
a((lp320
(lp321
F1
aF0
aF0
aa(lp322
F0
aF0
aF1
aa(lp323
F0
aF-1
aF0
aa(lp324
F0.75
aF0.25
aF0.75
atp325
a((lp326
(lp327
F0
aF0
aF1
aa(lp328
F0
aF1
aF0
aa(lp329
F-1
aF0
aF0
aa(lp330
F0.75
aF0.25
aF0.75
atp331
a((lp332
(lp333
F-1
aF0
aF0
aa(lp334
F0
aF1
aF0
aa(lp335
F0
aF0
aF-1
aa(lp336
F0.5
aF0
aF0.5
atp337
a((lp338
(lp339
F0
aF0
aF-1
aa(lp340
F0
aF1
aF0
aa(lp341
F1
aF0
aF0
aa(lp342
F0.75
aF0.25
aF0.75
atp343
a((lp344
(lp345
F0
aF0
aF1
aa(lp346
F1
aF0
aF0
aa(lp347
F0
aF1
aF0
aa(lp348
F0.5
aF0
aF0.5
atp349
a((lp350
(lp351
F0
aF1
aF0
aa(lp352
F0
aF0
aF1
aa(lp353
F1
aF0
aF0
aa(lp354
F0.5
aF0
aF0.5
atp355
a((lp356
(lp357
F0
aF-1
aF0
aa(lp358
F0
aF0
aF-1
aa(lp359
F1
aF0
aF0
aa(lp360
F0.5
aF0
aF0.5
atp361
a((lp362
(lp363
F0
aF0
aF1
aa(lp364
F-1
aF0
aF0
aa(lp365
F0
aF-1
aF0
aa(lp366
F0.5
aF0
aF0.5
atp367
a((lp368
(lp369
F0
aF-1
aF0
aa(lp370
F0
aF0
aF1
aa(lp371
F-1
aF0
aF0
aa(lp372
F0.5
aF0
aF0.5
atp373
a((lp374
(lp375
F0
aF0
aF-1
aa(lp376
F-1
aF0
aF0
aa(lp377
F0
aF1
aF0
aa(lp378
F0.5
aF0
aF0.5
atp379
a((lp380
(lp381
F0
aF0
aF-1
aa(lp382
F1
aF0
aF0
aa(lp383
F0
aF-1
aF0
aa(lp384
F0.5
aF0
aF0.5
atp385
a((lp386
(lp387
F0
aF1
aF0
aa(lp388
F0
aF0
aF-1
aa(lp389
F-1
aF0
aF0
aa(lp390
F0.5
aF0
aF0.5
atp391
a((lp392
(lp393
F0
aF1
aF0
aa(lp394
F1
aF0
aF0
aa(lp395
F0
aF0
aF-1
aa(lp396
F0.75
aF0.25
aF0.75
atp397
a((lp398
(lp399
F0
aF-1
aF0
aa(lp400
F-1
aF0
aF0
aa(lp401
F0
aF0
aF-1
aa(lp402
F0.75
aF0.25
aF0.75
atp403
a((lp404
(lp405
F-1
aF0
aF0
aa(lp406
F0
aF0
aF1
aa(lp407
F0
aF1
aF0
aa(lp408
F0.75
aF0.25
aF0.75
atp409
a((lp410
(lp411
F-1
aF0
aF0
aa(lp412
F0
aF0
aF-1
aa(lp413
F0
aF-1
aF0
aa(lp414
F0.75
aF0.25
aF0.75
atp415
a((lp416
(lp417
F0
aF0
aF1
aa(lp418
F0
aF-1
aF0
aa(lp419
F1
aF0
aF0
aa(lp420
F0.75
aF0.25
aF0.75
atp421
a((lp422
(lp423
F0
aF0
aF-1
aa(lp424
F0
aF-1
aF0
aa(lp425
F-1
aF0
aF0
aa(lp426
F0.75
aF0.25
aF0.75
atp427
a((lp428
(lp429
F1
aF0
aF0
aa(lp430
F0
aF1
aF0
aa(lp431
F0
aF0
aF1
aa(lp432
F0.5
aF0.5
aF0
atp433
a((lp434
(lp435
F0
aF-1
aF0
aa(lp436
F1
aF0
aF0
aa(lp437
F0
aF0
aF1
aa(lp438
F0.75
aF0.75
aF0.25
atp439
a((lp440
(lp441
F-1
aF0
aF0
aa(lp442
F0
aF-1
aF0
aa(lp443
F0
aF0
aF1
aa(lp444
F0.5
aF0.5
aF0
atp445
a((lp446
(lp447
F0
aF1
aF0
aa(lp448
F-1
aF0
aF0
aa(lp449
F0
aF0
aF1
aa(lp450
F0.75
aF0.75
aF0.25
atp451
a((lp452
(lp453
F1
aF0
aF0
aa(lp454
F0
aF0
aF-1
aa(lp455
F0
aF1
aF0
aa(lp456
F0.75
aF0.75
aF0.25
atp457
a((lp458
(lp459
F1
aF0
aF0
aa(lp460
F0
aF-1
aF0
aa(lp461
F0
aF0
aF-1
aa(lp462
F0.5
aF0.5
aF0
atp463
a((lp464
(lp465
F1
aF0
aF0
aa(lp466
F0
aF0
aF1
aa(lp467
F0
aF-1
aF0
aa(lp468
F0.75
aF0.75
aF0.25
atp469
a((lp470
(lp471
F0
aF0
aF1
aa(lp472
F0
aF1
aF0
aa(lp473
F-1
aF0
aF0
aa(lp474
F0.75
aF0.75
aF0.25
atp475
a((lp476
(lp477
F-1
aF0
aF0
aa(lp478
F0
aF1
aF0
aa(lp479
F0
aF0
aF-1
aa(lp480
F0.5
aF0.5
aF0
atp481
a((lp482
(lp483
F0
aF0
aF-1
aa(lp484
F0
aF1
aF0
aa(lp485
F1
aF0
aF0
aa(lp486
F0.75
aF0.75
aF0.25
atp487
a((lp488
(lp489
F0
aF0
aF1
aa(lp490
F1
aF0
aF0
aa(lp491
F0
aF1
aF0
aa(lp492
F0.5
aF0.5
aF0
atp493
a((lp494
(lp495
F0
aF1
aF0
aa(lp496
F0
aF0
aF1
aa(lp497
F1
aF0
aF0
aa(lp498
F0.5
aF0.5
aF0
atp499
a((lp500
(lp501
F0
aF-1
aF0
aa(lp502
F0
aF0
aF-1
aa(lp503
F1
aF0
aF0
aa(lp504
F0.5
aF0.5
aF0
atp505
a((lp506
(lp507
F0
aF0
aF1
aa(lp508
F-1
aF0
aF0
aa(lp509
F0
aF-1
aF0
aa(lp510
F0.5
aF0.5
aF0
atp511
a((lp512
(lp513
F0
aF-1
aF0
aa(lp514
F0
aF0
aF1
aa(lp515
F-1
aF0
aF0
aa(lp516
F0.5
aF0.5
aF0
atp517
a((lp518
(lp519
F0
aF0
aF-1
aa(lp520
F-1
aF0
aF0
aa(lp521
F0
aF1
aF0
aa(lp522
F0.5
aF0.5
aF0
atp523
a((lp524
(lp525
F0
aF0
aF-1
aa(lp526
F1
aF0
aF0
aa(lp527
F0
aF-1
aF0
aa(lp528
F0.5
aF0.5
aF0
atp529
a((lp530
(lp531
F0
aF1
aF0
aa(lp532
F0
aF0
aF-1
aa(lp533
F-1
aF0
aF0
aa(lp534
F0.5
aF0.5
aF0
atp535
a((lp536
(lp537
F0
aF1
aF0
aa(lp538
F1
aF0
aF0
aa(lp539
F0
aF0
aF-1
aa(lp540
F0.75
aF0.75
aF0.25
atp541
a((lp542
(lp543
F0
aF-1
aF0
aa(lp544
F-1
aF0
aF0
aa(lp545
F0
aF0
aF-1
aa(lp546
F0.75
aF0.75
aF0.25
atp547
a((lp548
(lp549
F-1
aF0
aF0
aa(lp550
F0
aF0
aF1
aa(lp551
F0
aF1
aF0
aa(lp552
F0.75
aF0.75
aF0.25
atp553
a((lp554
(lp555
F-1
aF0
aF0
aa(lp556
F0
aF0
aF-1
aa(lp557
F0
aF-1
aF0
aa(lp558
F0.75
aF0.75
aF0.25
atp559
a((lp560
(lp561
F0
aF0
aF1
aa(lp562
F0
aF-1
aF0
aa(lp563
F1
aF0
aF0
aa(lp564
F0.75
aF0.75
aF0.25
atp565
a((lp566
(lp567
F0
aF0
aF-1
aa(lp568
F0
aF-1
aF0
aa(lp569
F-1
aF0
aF0
aa(lp570
F0.75
aF0.75
aF0.25
atp571
a.