(lp1
((lp2
(lp3
F-1
aF0
aF0
aa(lp4
F0
aF-1
aF0
aa(lp5
F0
aF0
aF1
aa(lp6
F0
aF0
aF0
atp7
a((lp8
(lp9
F1
aF0
aF0
aa(lp10
F0
aF-1
aF0
aa(lp11
F0
aF0
aF-1
aa(lp12
F0
aF0
aF0
atp13
a((lp14
(lp15
F-1
aF0
aF0
aa(lp16
F0
aF1
aF0
aa(lp17
F0
aF0
aF-1
aa(lp18
F0
aF0
aF0
atp19
a.